; ModuleID = '46/1744.c'
source_filename = "46/1744.c"
target datalayout = "e-m:e-p270:32:32-p271:32:32-p272:64:64-i64:64-f80:128-n8:16:32:64-S128"
target triple = "x86_64-pc-linux-gnu"

@.str = private unnamed_addr constant [5 x i8] c"%d%d\00", align 1
@.str.1 = private unnamed_addr constant [3 x i8] c"%d\00", align 1
@.str.2 = private unnamed_addr constant [4 x i8] c"%d\0A\00", align 1

; Function Attrs: noinline nounwind uwtable
define dso_local i32 @main() #0 {
  %1 = alloca i32, align 4
  %2 = alloca [100 x [100 x i32]], align 16
  %3 = alloca i32, align 4
  %4 = alloca i32, align 4
  %5 = alloca i32, align 4
  %6 = alloca i32, align 4
  %7 = alloca i32, align 4
  %8 = alloca i32, align 4
  store i32 0, i32* %1, align 4
  store i32 0, i32* %7, align 4
  %9 = call i32 (i8*, ...) @__isoc99_scanf(i8* getelementptr inbounds ([5 x i8], [5 x i8]* @.str, i64 0, i64 0), i32* %4, i32* %5)
  store i32 0, i32* %3, align 4
  br label %10

10:                                               ; preds = %31, %0
  %11 = load i32, i32* %3, align 4
  %12 = load i32, i32* %4, align 4
  %13 = icmp slt i32 %11, %12
  br i1 %13, label %14, label %34

14:                                               ; preds = %10
  store i32 0, i32* %6, align 4
  br label %15

15:                                               ; preds = %27, %14
  %16 = load i32, i32* %6, align 4
  %17 = load i32, i32* %5, align 4
  %18 = icmp slt i32 %16, %17
  br i1 %18, label %19, label %30

19:                                               ; preds = %15
  %20 = load i32, i32* %3, align 4
  %21 = sext i32 %20 to i64
  %22 = getelementptr inbounds [100 x [100 x i32]], [100 x [100 x i32]]* %2, i64 0, i64 %21
  %23 = load i32, i32* %6, align 4
  %24 = sext i32 %23 to i64
  %25 = getelementptr inbounds [100 x i32], [100 x i32]* %22, i64 0, i64 %24
  %26 = call i32 (i8*, ...) @__isoc99_scanf(i8* getelementptr inbounds ([3 x i8], [3 x i8]* @.str.1, i64 0, i64 0), i32* %25)
  br label %27

27:                                               ; preds = %19
  %28 = load i32, i32* %6, align 4
  %29 = add nsw i32 %28, 1
  store i32 %29, i32* %6, align 4
  br label %15

30:                                               ; preds = %15
  br label %31

31:                                               ; preds = %30
  %32 = load i32, i32* %3, align 4
  %33 = add nsw i32 %32, 1
  store i32 %33, i32* %3, align 4
  br label %10

34:                                               ; preds = %10
  %35 = load i32, i32* %4, align 4
  store i32 %35, i32* %8, align 4
  %36 = load i32, i32* %4, align 4
  %37 = load i32, i32* %5, align 4
  %38 = icmp sgt i32 %36, %37
  br i1 %38, label %39, label %41

39:                                               ; preds = %34
  %40 = load i32, i32* %5, align 4
  store i32 %40, i32* %8, align 4
  br label %41

41:                                               ; preds = %39, %34
  br label %42

42:                                               ; preds = %157, %41
  %43 = load i32, i32* %7, align 4
  %44 = load i32, i32* %8, align 4
  %45 = add nsw i32 %44, 1
  %46 = sdiv i32 %45, 2
  %47 = icmp slt i32 %43, %46
  br i1 %47, label %48, label %160

48:                                               ; preds = %42
  %49 = load i32, i32* %7, align 4
  %50 = add nsw i32 0, %49
  store i32 %50, i32* %6, align 4
  br label %51

51:                                               ; preds = %67, %48
  %52 = load i32, i32* %6, align 4
  %53 = load i32, i32* %5, align 4
  %54 = load i32, i32* %7, align 4
  %55 = sub nsw i32 %53, %54
  %56 = icmp slt i32 %52, %55
  br i1 %56, label %57, label %70

57:                                               ; preds = %51
  %58 = load i32, i32* %7, align 4
  %59 = add nsw i32 0, %58
  %60 = sext i32 %59 to i64
  %61 = getelementptr inbounds [100 x [100 x i32]], [100 x [100 x i32]]* %2, i64 0, i64 %60
  %62 = load i32, i32* %6, align 4
  %63 = sext i32 %62 to i64
  %64 = getelementptr inbounds [100 x i32], [100 x i32]* %61, i64 0, i64 %63
  %65 = load i32, i32* %64, align 4
  %66 = call i32 (i8*, ...) @printf(i8* getelementptr inbounds ([4 x i8], [4 x i8]* @.str.2, i64 0, i64 0), i32 %65)
  br label %67

67:                                               ; preds = %57
  %68 = load i32, i32* %6, align 4
  %69 = add nsw i32 %68, 1
  store i32 %69, i32* %6, align 4
  br label %51

70:                                               ; preds = %51
  %71 = load i32, i32* %7, align 4
  %72 = add nsw i32 1, %71
  store i32 %72, i32* %3, align 4
  br label %73

73:                                               ; preds = %91, %70
  %74 = load i32, i32* %3, align 4
  %75 = load i32, i32* %4, align 4
  %76 = load i32, i32* %7, align 4
  %77 = sub nsw i32 %75, %76
  %78 = icmp slt i32 %74, %77
  br i1 %78, label %79, label %94

79:                                               ; preds = %73
  %80 = load i32, i32* %3, align 4
  %81 = sext i32 %80 to i64
  %82 = getelementptr inbounds [100 x [100 x i32]], [100 x [100 x i32]]* %2, i64 0, i64 %81
  %83 = load i32, i32* %5, align 4
  %84 = sub nsw i32 %83, 1
  %85 = load i32, i32* %7, align 4
  %86 = sub nsw i32 %84, %85
  %87 = sext i32 %86 to i64
  %88 = getelementptr inbounds [100 x i32], [100 x i32]* %82, i64 0, i64 %87
  %89 = load i32, i32* %88, align 4
  %90 = call i32 (i8*, ...) @printf(i8* getelementptr inbounds ([4 x i8], [4 x i8]* @.str.2, i64 0, i64 0), i32 %89)
  br label %91

91:                                               ; preds = %79
  %92 = load i32, i32* %3, align 4
  %93 = add nsw i32 %92, 1
  store i32 %93, i32* %3, align 4
  br label %73

94:                                               ; preds = %73
  %95 = load i32, i32* %5, align 4
  %96 = sub nsw i32 %95, 2
  %97 = load i32, i32* %7, align 4
  %98 = sub nsw i32 %96, %97
  store i32 %98, i32* %6, align 4
  br label %99

99:                                               ; preds = %125, %94
  %100 = load i32, i32* %6, align 4
  %101 = load i32, i32* %7, align 4
  %102 = add nsw i32 -1, %101
  %103 = icmp sgt i32 %100, %102
  br i1 %103, label %104, label %128

104:                                              ; preds = %99
  %105 = load i32, i32* %4, align 4
  %106 = sub nsw i32 %105, 1
  %107 = load i32, i32* %7, align 4
  %108 = sub nsw i32 %106, %107
  %109 = load i32, i32* %7, align 4
  %110 = add nsw i32 0, %109
  %111 = icmp sle i32 %108, %110
  br i1 %111, label %112, label %113

112:                                              ; preds = %104
  br label %128

113:                                              ; preds = %104
  %114 = load i32, i32* %4, align 4
  %115 = sub nsw i32 %114, 1
  %116 = load i32, i32* %7, align 4
  %117 = sub nsw i32 %115, %116
  %118 = sext i32 %117 to i64
  %119 = getelementptr inbounds [100 x [100 x i32]], [100 x [100 x i32]]* %2, i64 0, i64 %118
  %120 = load i32, i32* %6, align 4
  %121 = sext i32 %120 to i64
  %122 = getelementptr inbounds [100 x i32], [100 x i32]* %119, i64 0, i64 %121
  %123 = load i32, i32* %122, align 4
  %124 = call i32 (i8*, ...) @printf(i8* getelementptr inbounds ([4 x i8], [4 x i8]* @.str.2, i64 0, i64 0), i32 %123)
  br label %125

125:                                              ; preds = %113
  %126 = load i32, i32* %6, align 4
  %127 = add nsw i32 %126, -1
  store i32 %127, i32* %6, align 4
  br label %99

128:                                              ; preds = %112, %99
  %129 = load i32, i32* %4, align 4
  %130 = sub nsw i32 %129, 2
  %131 = load i32, i32* %7, align 4
  %132 = sub nsw i32 %130, %131
  store i32 %132, i32* %3, align 4
  br label %133

133:                                              ; preds = %154, %128
  %134 = load i32, i32* %3, align 4
  %135 = load i32, i32* %7, align 4
  %136 = icmp sgt i32 %134, %135
  br i1 %136, label %137, label %157

137:                                              ; preds = %133
  %138 = load i32, i32* %7, align 4
  %139 = load i32, i32* %5, align 4
  %140 = sub nsw i32 %139, 1
  %141 = load i32, i32* %7, align 4
  %142 = sub nsw i32 %140, %141
  %143 = icmp sge i32 %138, %142
  br i1 %143, label %144, label %145

144:                                              ; preds = %137
  br label %157

145:                                              ; preds = %137
  %146 = load i32, i32* %3, align 4
  %147 = sext i32 %146 to i64
  %148 = getelementptr inbounds [100 x [100 x i32]], [100 x [100 x i32]]* %2, i64 0, i64 %147
  %149 = load i32, i32* %7, align 4
  %150 = sext i32 %149 to i64
  %151 = getelementptr inbounds [100 x i32], [100 x i32]* %148, i64 0, i64 %150
  %152 = load i32, i32* %151, align 4
  %153 = call i32 (i8*, ...) @printf(i8* getelementptr inbounds ([4 x i8], [4 x i8]* @.str.2, i64 0, i64 0), i32 %152)
  br label %154

154:                                              ; preds = %145
  %155 = load i32, i32* %3, align 4
  %156 = add nsw i32 %155, -1
  store i32 %156, i32* %3, align 4
  br label %133

157:                                              ; preds = %144, %133
  %158 = load i32, i32* %7, align 4
  %159 = add nsw i32 %158, 1
  store i32 %159, i32* %7, align 4
  br label %42

160:                                              ; preds = %42
  ret i32 0
}

declare dso_local i32 @__isoc99_scanf(i8*, ...) #1

declare dso_local i32 @printf(i8*, ...) #1


!llvm.module.flags = !{!0}
!llvm.ident = !{!1}

!0 = !{i32 1, !"wchar_size", i32 4}
!1 = !{!"clang version 10.0.0-4ubuntu1 "}
